; Function Attrs: mustprogress nounwind uwtable
define hidden noundef i64 @_ZN10AltHashing12compute_seedEv() local_unnamed_addr #0 align 2 {
  %1 = alloca [8 x i32], align 16
  %2 = tail call noundef i64 @_ZN2os13javaTimeNanosEv() #7
  %3 = tail call noundef i64 @_ZN2os14javaTimeMillisEv() #7
  %4 = load ptr, ptr getelementptr inbounds (i8, ptr @_ZN9vmClasses8_klassesE, i64 8), align 8
  %5 = getelementptr i8, ptr %4, i64 112
  %.val = load ptr, ptr %5, align 8
  %6 = icmp eq ptr %.val, null
  br i1 %6, label %_ZNK5Klass11java_mirrorEv.exit.i, label %7

7:                                                ; preds = %0
  %8 = load ptr, ptr @_ZN14AccessInternal15RuntimeDispatchILm548932EP7oopDescLNS_11BarrierTypeE2EE10_load_funcE, align 8
  %9 = tail call noundef ptr %8(ptr noundef nonnull %.val) #7
  br label %_ZNK5Klass11java_mirrorEv.exit.i

_ZNK5Klass11java_mirrorEv.exit.i:                 ; preds = %7, %0
  %10 = phi ptr [ %9, %7 ], [ null, %0 ]
  %11 = load volatile i64, ptr %10, align 8
  %12 = lshr i64 %11, 8
  %13 = and i64 %12, 2147483647
  %.not.i = icmp eq i64 %13, 0
  br i1 %.not.i, label %14, label %_ZL11object_hashP5Klass.exit

14:                                               ; preds = %_ZNK5Klass11java_mirrorEv.exit.i
  %15 = tail call noundef i32 @_ZN2os6randomEv() #7
  %16 = zext i32 %15 to i64
  br label %_ZL11object_hashP5Klass.exit

_ZL11object_hashP5Klass.exit:                     ; preds = %_ZNK5Klass11java_mirrorEv.exit.i, %14
  %17 = phi i64 [ %16, %14 ], [ %13, %_ZNK5Klass11java_mirrorEv.exit.i ]
  %18 = trunc nuw i64 %17 to i32
  store i32 %18, ptr %1, align 16
  %19 = load ptr, ptr getelementptr inbounds (i8, ptr @_ZN9vmClasses8_klassesE, i64 48), align 8
  %20 = getelementptr i8, ptr %19, i64 112
  %.val4 = load ptr, ptr %20, align 8
  %21 = icmp eq ptr %.val4, null
  br i1 %21, label %_ZNK5Klass11java_mirrorEv.exit.i5, label %22

22:                                               ; preds = %_ZL11object_hashP5Klass.exit
  %23 = load ptr, ptr @_ZN14AccessInternal15RuntimeDispatchILm548932EP7oopDescLNS_11BarrierTypeE2EE10_load_funcE, align 8
  %24 = tail call noundef ptr %23(ptr noundef nonnull %.val4) #7
  br label %_ZNK5Klass11java_mirrorEv.exit.i5

_ZNK5Klass11java_mirrorEv.exit.i5:                ; preds = %22, %_ZL11object_hashP5Klass.exit
  %25 = phi ptr [ %24, %22 ], [ null, %_ZL11object_hashP5Klass.exit ]
  %26 = load volatile i64, ptr %25, align 8
  %27 = lshr i64 %26, 8
  %28 = and i64 %27, 2147483647
  %.not.i6 = icmp eq i64 %28, 0
  br i1 %.not.i6, label %29, label %_ZL11object_hashP5Klass.exit7

29:                                               ; preds = %_ZNK5Klass11java_mirrorEv.exit.i5
  %30 = tail call noundef i32 @_ZN2os6randomEv() #7
  %31 = zext i32 %30 to i64
  br label %_ZL11object_hashP5Klass.exit7

_ZL11object_hashP5Klass.exit7:                    ; preds = %_ZNK5Klass11java_mirrorEv.exit.i5, %29
  %32 = phi i64 [ %31, %29 ], [ %28, %_ZNK5Klass11java_mirrorEv.exit.i5 ]
  %33 = getelementptr inbounds i8, ptr %1, i64 4
  %34 = trunc nuw i64 %32 to i32
  store i32 %34, ptr %33, align 4
  %35 = getelementptr inbounds i8, ptr %1, i64 8
  %36 = tail call noundef i32 @_ZN2os6randomEv() #7
  store i32 %36, ptr %35, align 8
  %37 = getelementptr inbounds i8, ptr %1, i64 12
  %38 = lshr i64 %2, 32
  %39 = trunc nuw i64 %38 to i32
  store i32 %39, ptr %37, align 4
  %40 = getelementptr inbounds i8, ptr %1, i64 16
  %41 = trunc i64 %2 to i32
  store i32 %41, ptr %40, align 16
  %42 = getelementptr inbounds i8, ptr %1, i64 20
  %43 = lshr i64 %3, 32
  %44 = trunc nuw i64 %43 to i32
  store i32 %44, ptr %42, align 4
  %45 = getelementptr inbounds i8, ptr %1, i64 24
  %46 = trunc i64 %3 to i32
  store i32 %46, ptr %45, align 8
  %47 = getelementptr inbounds i8, ptr %1, i64 28
  %48 = tail call noundef i64 @_ZN2os13javaTimeNanosEv() #7
  %49 = lshr i64 %48, 2
  %50 = trunc i64 %49 to i32
  store i32 %50, ptr %47, align 4
  %51 = call noundef i64 @_ZN10AltHashing14halfsiphash_64EmPKji(i64 noundef 0, ptr noundef nonnull readonly %1, i32 noundef 8)
  ret i64 %51
}